; Function Attrs: mustprogress uwtable
define hidden void @_ZN3api6object7dec_refEv(ptr noundef nonnull align 8 dereferenceable(24) %0) local_unnamed_addr #3 align 2 {
  %2 = getelementptr inbounds nuw i8, ptr %0, i64 8
  %3 = atomicrmw sub ptr %2, i32 1 seq_cst, align 4
  %4 = icmp eq i32 %3, 1
  br i1 %4, label %5, label %8

5:                                                ; preds = %1
  %6 = getelementptr inbounds nuw i8, ptr %0, i64 16
  %7 = load ptr, ptr %6, align 8, !tbaa !27
  tail call void @_ZN3api7context10del_objectEPNS_6objectE(ptr noundef nonnull align 8 dereferenceable(3056) %7, ptr noundef nonnull %0)
  br label %8

8:                                                ; preds = %5, %1
  ret void
}